#include <math.h>
#include <stdio.h>
#include <stdlib.h>
#include <string.h>

int main()
{
	int i,x,m,c,r,k;
	double n,y;
	char a[502],b[502];
	x=0;
	scanf("%lf",&n);
	scanf("%s",a);
	scanf("%s",b);
	m=strlen(a);
	c=strlen(b);
	r=1;
k=1;
	if(m!=c){
		k=0;
	}
	for(i=0;i<m;i++){
		if(a[i]=='A'||a[i]=='T'||a[i]=='G'||a[i]=='C'||b[i]=='A'||b[i]=='T'||b[i]=='G'||b[i]=='C'){
			r=1;
		}
		else{
		r=0;
		}
		if(r==0||k==0){
			printf("error");
			break;
		}
	}
	if(r==1&&k==1){
    	for(i=0;i<m;i++){
			if(a[i]==b[i]){
				x++;
			}
		}
		y=1.0*x/m;
		if(y>n){
			printf("yes");
		}
		else{
			printf("no");
		}
	}
	return 0;
}

