; ModuleID = '5/1159.c'
source_filename = "5/1159.c"
target datalayout = "e-m:e-p270:32:32-p271:32:32-p272:64:64-i64:64-f80:128-n8:16:32:64-S128"
target triple = "x86_64-pc-linux-gnu"

@.str = private unnamed_addr constant [4 x i8] c"%lf\00", align 1
@.str.1 = private unnamed_addr constant [3 x i8] c"%s\00", align 1
@.str.2 = private unnamed_addr constant [6 x i8] c"error\00", align 1
@.str.3 = private unnamed_addr constant [4 x i8] c"yes\00", align 1
@.str.4 = private unnamed_addr constant [3 x i8] c"no\00", align 1

; Function Attrs: noinline nounwind uwtable
define dso_local i32 @main() #0 {
  %1 = alloca i32, align 4
  %2 = alloca i32, align 4
  %3 = alloca i32, align 4
  %4 = alloca i32, align 4
  %5 = alloca i32, align 4
  %6 = alloca i32, align 4
  %7 = alloca i32, align 4
  %8 = alloca double, align 8
  %9 = alloca double, align 8
  %10 = alloca [502 x i8], align 16
  %11 = alloca [502 x i8], align 16
  store i32 0, i32* %1, align 4
  store i32 0, i32* %3, align 4
  %12 = call i32 (i8*, ...) @__isoc99_scanf(i8* getelementptr inbounds ([4 x i8], [4 x i8]* @.str, i64 0, i64 0), double* %8)
  %13 = getelementptr inbounds [502 x i8], [502 x i8]* %10, i64 0, i64 0
  %14 = call i32 (i8*, ...) @__isoc99_scanf(i8* getelementptr inbounds ([3 x i8], [3 x i8]* @.str.1, i64 0, i64 0), i8* %13)
  %15 = getelementptr inbounds [502 x i8], [502 x i8]* %11, i64 0, i64 0
  %16 = call i32 (i8*, ...) @__isoc99_scanf(i8* getelementptr inbounds ([3 x i8], [3 x i8]* @.str.1, i64 0, i64 0), i8* %15)
  %17 = getelementptr inbounds [502 x i8], [502 x i8]* %10, i64 0, i64 0
  %18 = call i64 @strlen(i8* %17) #3
  %19 = trunc i64 %18 to i32
  store i32 %19, i32* %4, align 4
  %20 = getelementptr inbounds [502 x i8], [502 x i8]* %11, i64 0, i64 0
  %21 = call i64 @strlen(i8* %20) #3
  %22 = trunc i64 %21 to i32
  store i32 %22, i32* %5, align 4
  store i32 1, i32* %6, align 4
  store i32 1, i32* %7, align 4
  %23 = load i32, i32* %4, align 4
  %24 = load i32, i32* %5, align 4
  %25 = icmp ne i32 %23, %24
  br i1 %25, label %26, label %27

26:                                               ; preds = %0
  store i32 0, i32* %7, align 4
  br label %27

27:                                               ; preds = %26, %0
  store i32 0, i32* %2, align 4
  br label %28

28:                                               ; preds = %99, %27
  %29 = load i32, i32* %2, align 4
  %30 = load i32, i32* %4, align 4
  %31 = icmp slt i32 %29, %30
  br i1 %31, label %32, label %102

32:                                               ; preds = %28
  %33 = load i32, i32* %2, align 4
  %34 = sext i32 %33 to i64
  %35 = getelementptr inbounds [502 x i8], [502 x i8]* %10, i64 0, i64 %34
  %36 = load i8, i8* %35, align 1
  %37 = sext i8 %36 to i32
  %38 = icmp eq i32 %37, 65
  br i1 %38, label %88, label %39

39:                                               ; preds = %32
  %40 = load i32, i32* %2, align 4
  %41 = sext i32 %40 to i64
  %42 = getelementptr inbounds [502 x i8], [502 x i8]* %10, i64 0, i64 %41
  %43 = load i8, i8* %42, align 1
  %44 = sext i8 %43 to i32
  %45 = icmp eq i32 %44, 84
  br i1 %45, label %88, label %46

46:                                               ; preds = %39
  %47 = load i32, i32* %2, align 4
  %48 = sext i32 %47 to i64
  %49 = getelementptr inbounds [502 x i8], [502 x i8]* %10, i64 0, i64 %48
  %50 = load i8, i8* %49, align 1
  %51 = sext i8 %50 to i32
  %52 = icmp eq i32 %51, 71
  br i1 %52, label %88, label %53

53:                                               ; preds = %46
  %54 = load i32, i32* %2, align 4
  %55 = sext i32 %54 to i64
  %56 = getelementptr inbounds [502 x i8], [502 x i8]* %10, i64 0, i64 %55
  %57 = load i8, i8* %56, align 1
  %58 = sext i8 %57 to i32
  %59 = icmp eq i32 %58, 67
  br i1 %59, label %88, label %60

60:                                               ; preds = %53
  %61 = load i32, i32* %2, align 4
  %62 = sext i32 %61 to i64
  %63 = getelementptr inbounds [502 x i8], [502 x i8]* %11, i64 0, i64 %62
  %64 = load i8, i8* %63, align 1
  %65 = sext i8 %64 to i32
  %66 = icmp eq i32 %65, 65
  br i1 %66, label %88, label %67

67:                                               ; preds = %60
  %68 = load i32, i32* %2, align 4
  %69 = sext i32 %68 to i64
  %70 = getelementptr inbounds [502 x i8], [502 x i8]* %11, i64 0, i64 %69
  %71 = load i8, i8* %70, align 1
  %72 = sext i8 %71 to i32
  %73 = icmp eq i32 %72, 84
  br i1 %73, label %88, label %74

74:                                               ; preds = %67
  %75 = load i32, i32* %2, align 4
  %76 = sext i32 %75 to i64
  %77 = getelementptr inbounds [502 x i8], [502 x i8]* %11, i64 0, i64 %76
  %78 = load i8, i8* %77, align 1
  %79 = sext i8 %78 to i32
  %80 = icmp eq i32 %79, 71
  br i1 %80, label %88, label %81

81:                                               ; preds = %74
  %82 = load i32, i32* %2, align 4
  %83 = sext i32 %82 to i64
  %84 = getelementptr inbounds [502 x i8], [502 x i8]* %11, i64 0, i64 %83
  %85 = load i8, i8* %84, align 1
  %86 = sext i8 %85 to i32
  %87 = icmp eq i32 %86, 67
  br i1 %87, label %88, label %89

88:                                               ; preds = %81, %74, %67, %60, %53, %46, %39, %32
  store i32 1, i32* %6, align 4
  br label %90

89:                                               ; preds = %81
  store i32 0, i32* %6, align 4
  br label %90

90:                                               ; preds = %89, %88
  %91 = load i32, i32* %6, align 4
  %92 = icmp eq i32 %91, 0
  br i1 %92, label %96, label %93

93:                                               ; preds = %90
  %94 = load i32, i32* %7, align 4
  %95 = icmp eq i32 %94, 0
  br i1 %95, label %96, label %98

96:                                               ; preds = %93, %90
  %97 = call i32 (i8*, ...) @printf(i8* getelementptr inbounds ([6 x i8], [6 x i8]* @.str.2, i64 0, i64 0))
  br label %102

98:                                               ; preds = %93
  br label %99

99:                                               ; preds = %98
  %100 = load i32, i32* %2, align 4
  %101 = add nsw i32 %100, 1
  store i32 %101, i32* %2, align 4
  br label %28

102:                                              ; preds = %96, %28
  %103 = load i32, i32* %6, align 4
  %104 = icmp eq i32 %103, 1
  br i1 %104, label %105, label %147

105:                                              ; preds = %102
  %106 = load i32, i32* %7, align 4
  %107 = icmp eq i32 %106, 1
  br i1 %107, label %108, label %147

108:                                              ; preds = %105
  store i32 0, i32* %2, align 4
  br label %109

109:                                              ; preds = %129, %108
  %110 = load i32, i32* %2, align 4
  %111 = load i32, i32* %4, align 4
  %112 = icmp slt i32 %110, %111
  br i1 %112, label %113, label %132

113:                                              ; preds = %109
  %114 = load i32, i32* %2, align 4
  %115 = sext i32 %114 to i64
  %116 = getelementptr inbounds [502 x i8], [502 x i8]* %10, i64 0, i64 %115
  %117 = load i8, i8* %116, align 1
  %118 = sext i8 %117 to i32
  %119 = load i32, i32* %2, align 4
  %120 = sext i32 %119 to i64
  %121 = getelementptr inbounds [502 x i8], [502 x i8]* %11, i64 0, i64 %120
  %122 = load i8, i8* %121, align 1
  %123 = sext i8 %122 to i32
  %124 = icmp eq i32 %118, %123
  br i1 %124, label %125, label %128

125:                                              ; preds = %113
  %126 = load i32, i32* %3, align 4
  %127 = add nsw i32 %126, 1
  store i32 %127, i32* %3, align 4
  br label %128

128:                                              ; preds = %125, %113
  br label %129

129:                                              ; preds = %128
  %130 = load i32, i32* %2, align 4
  %131 = add nsw i32 %130, 1
  store i32 %131, i32* %2, align 4
  br label %109

132:                                              ; preds = %109
  %133 = load i32, i32* %3, align 4
  %134 = sitofp i32 %133 to double
  %135 = fmul double 1.000000e+00, %134
  %136 = load i32, i32* %4, align 4
  %137 = sitofp i32 %136 to double
  %138 = fdiv double %135, %137
  store double %138, double* %9, align 8
  %139 = load double, double* %9, align 8
  %140 = load double, double* %8, align 8
  %141 = fcmp ogt double %139, %140
  br i1 %141, label %142, label %144

142:                                              ; preds = %132
  %143 = call i32 (i8*, ...) @printf(i8* getelementptr inbounds ([4 x i8], [4 x i8]* @.str.3, i64 0, i64 0))
  br label %146

144:                                              ; preds = %132
  %145 = call i32 (i8*, ...) @printf(i8* getelementptr inbounds ([3 x i8], [3 x i8]* @.str.4, i64 0, i64 0))
  br label %146

146:                                              ; preds = %144, %142
  br label %147

147:                                              ; preds = %146, %105, %102
  ret i32 0
}

declare dso_local i32 @__isoc99_scanf(i8*, ...) #1

; Function Attrs: nounwind readonly
declare dso_local i64 @strlen(i8*) #2

declare dso_local i32 @printf(i8*, ...) #1


!llvm.module.flags = !{!0}
!llvm.ident = !{!1}

!0 = !{i32 1, !"wchar_size", i32 4}
!1 = !{!"clang version 10.0.0-4ubuntu1 "}
